target datalayout = "e-m:e-p270:32:32-p271:32:32-p272:64:64-i64:64-i128:128-f80:128-n8:16:32:64-S128"
target triple = "x86_64-pc-linux-gnu"

%struct.FunctionCallInfoBaseData = type { ptr, ptr, ptr, i32, i8, i16, [0 x %struct.NullableDatum] }
%struct.NullableDatum = type { i64, i8 }

; Function Attrs: inlinehint nounwind uwtable
define internal i64 @UInt64GetDatum(i64 noundef %0) #1 {
  %2 = alloca i64, align 8
  store i64 %0, ptr %2, align 8
  %3 = load i64, ptr %2, align 8
  ret i64 %3
}

; Function Attrs: inlinehint nounwind uwtable
define internal i64 @hash_uint32_extended(i32 noundef %0, i64 noundef %1) #1 {
  %3 = alloca i32, align 4
  %4 = alloca i64, align 8
  store i32 %0, ptr %3, align 4
  store i64 %1, ptr %4, align 8
  %5 = load i32, ptr %3, align 4
  %6 = load i64, ptr %4, align 8
  %7 = call i64 @hash_bytes_uint32_extended(i32 noundef %5, i64 noundef %6)
  %8 = call i64 @UInt64GetDatum(i64 noundef %7)
  ret i64 %8
}

; Function Attrs: inlinehint nounwind uwtable
define internal i64 @DatumGetInt64(i64 noundef %0) #1 {
  %2 = alloca i64, align 8
  store i64 %0, ptr %2, align 8
  %3 = load i64, ptr %2, align 8
  ret i64 %3
}

; Function Attrs: inlinehint nounwind uwtable
define internal i32 @DatumGetObjectId(i64 noundef %0) #1 {
  %2 = alloca i64, align 8
  store i64 %0, ptr %2, align 8
  %3 = load i64, ptr %2, align 8
  %4 = trunc i64 %3 to i32
  ret i32 %4
}

; Function Attrs: nounwind uwtable
define dso_local i64 @hashenumextended(ptr noundef %0) #0 {
  %2 = alloca ptr, align 8
  store ptr %0, ptr %2, align 8
  %3 = load ptr, ptr %2, align 8
  %4 = getelementptr inbounds nuw %struct.FunctionCallInfoBaseData, ptr %3, i32 0, i32 6
  %5 = getelementptr inbounds [0 x %struct.NullableDatum], ptr %4, i64 0, i64 0
  %6 = getelementptr inbounds nuw %struct.NullableDatum, ptr %5, i32 0, i32 0
  %7 = load i64, ptr %6, align 8
  %8 = call i32 @DatumGetObjectId(i64 noundef %7)
  %9 = load ptr, ptr %2, align 8
  %10 = getelementptr inbounds nuw %struct.FunctionCallInfoBaseData, ptr %9, i32 0, i32 6
  %11 = getelementptr inbounds [0 x %struct.NullableDatum], ptr %10, i64 0, i64 1
  %12 = getelementptr inbounds nuw %struct.NullableDatum, ptr %11, i32 0, i32 0
  %13 = load i64, ptr %12, align 8
  %14 = call i64 @DatumGetInt64(i64 noundef %13)
  %15 = call i64 @hash_uint32_extended(i32 noundef %8, i64 noundef %14)
  ret i64 %15
}